target datalayout = "e-m:e-p270:32:32-p271:32:32-p272:64:64-i64:64-i128:128-f80:128-n8:16:32:64-S128"
target triple = "x86_64-unknown-linux-gnu"

%"struct.proxygen::huffman::SuperHuffNode" = type { [256 x %"struct.proxygen::huffman::HuffNode"] }
%"struct.proxygen::huffman::HuffNode" = type { %union.anon, %struct.anon }
%union.anon = type { i8 }
%struct.anon = type { i8 }

; Function Attrs: mustprogress uwtable
define void @_ZN8proxygen7huffman8HuffTree9fillIndexERNS0_13SuperHuffNodeEjhhh(ptr noundef nonnull align 8 dereferenceable(23576) %this, ptr noundef nonnull align 1 dereferenceable(512) %snode, i32 noundef %code, i8 noundef zeroext %bits, i8 noundef zeroext %ch, i8 noundef zeroext %level) #0 align 2 {
entry:
  %this.addr = alloca ptr, align 8
  %snode.addr = alloca ptr, align 8
  %code.addr = alloca i32, align 4
  %bits.addr = alloca i8, align 1
  %ch.addr = alloca i8, align 1
  %level.addr = alloca i8, align 1
  %bit = alloca i8, align 1
  store ptr %this, ptr %this.addr, align 8
  store ptr %snode, ptr %snode.addr, align 8
  store i32 %code, ptr %code.addr, align 4
  store i8 %bits, ptr %bits.addr, align 1
  store i8 %ch, ptr %ch.addr, align 1
  store i8 %level, ptr %level.addr, align 1
  %this1 = load ptr, ptr %this.addr, align 8
  %0 = load i8, ptr %level.addr, align 1
  %conv = zext i8 %0 to i32
  %cmp = icmp eq i32 %conv, 8
  br i1 %cmp, label %if.then, label %if.end

if.then:                                          ; preds = %entry
  %1 = load i8, ptr %ch.addr, align 1
  %2 = load ptr, ptr %snode.addr, align 8
  %index = getelementptr inbounds %"struct.proxygen::huffman::SuperHuffNode", ptr %2, i32 0, i32 0
  %3 = load i32, ptr %code.addr, align 4
  %idxprom = zext i32 %3 to i64
  %arrayidx = getelementptr inbounds [256 x %"struct.proxygen::huffman::HuffNode"], ptr %index, i64 0, i64 %idxprom
  %data = getelementptr inbounds %"struct.proxygen::huffman::HuffNode", ptr %arrayidx, i32 0, i32 0
  store i8 %1, ptr %data, align 1
  %4 = load i8, ptr %bits.addr, align 1
  %5 = load ptr, ptr %snode.addr, align 8
  %index2 = getelementptr inbounds %"struct.proxygen::huffman::SuperHuffNode", ptr %5, i32 0, i32 0
  %6 = load i32, ptr %code.addr, align 4
  %idxprom3 = zext i32 %6 to i64
  %arrayidx4 = getelementptr inbounds [256 x %"struct.proxygen::huffman::HuffNode"], ptr %index2, i64 0, i64 %idxprom3
  %metadata = getelementptr inbounds %"struct.proxygen::huffman::HuffNode", ptr %arrayidx4, i32 0, i32 1
  %bf.load = load i8, ptr %metadata, align 1
  %bf.value = and i8 %4, 15
  %bf.clear = and i8 %bf.load, -16
  %bf.set = or i8 %bf.clear, %bf.value
  store i8 %bf.set, ptr %metadata, align 1
  br label %for.end

if.end:                                           ; preds = %entry
  %7 = load i32, ptr %code.addr, align 4
  %shl = shl i32 %7, 1
  store i32 %shl, ptr %code.addr, align 4
  store i8 0, ptr %bit, align 1
  br label %for.cond

for.cond:                                         ; preds = %for.inc, %if.end
  %8 = load i8, ptr %bit, align 1
  %conv5 = zext i8 %8 to i32
  %cmp6 = icmp sle i32 %conv5, 1
  br i1 %cmp6, label %for.body, label %for.end

for.body:                                         ; preds = %for.cond
  %9 = load ptr, ptr %snode.addr, align 8
  %10 = load i32, ptr %code.addr, align 4
  %11 = load i8, ptr %bit, align 1
  %conv7 = zext i8 %11 to i32
  %or = or i32 %10, %conv7
  %12 = load i8, ptr %bits.addr, align 1
  %13 = load i8, ptr %ch.addr, align 1
  %14 = load i8, ptr %level.addr, align 1
  %conv8 = zext i8 %14 to i32
  %add = add nsw i32 %conv8, 1
  %conv9 = trunc i32 %add to i8
  call void @_ZN8proxygen7huffman8HuffTree9fillIndexERNS0_13SuperHuffNodeEjhhh(ptr noundef nonnull align 8 dereferenceable(23576) %this1, ptr noundef nonnull align 1 dereferenceable(512) %9, i32 noundef %or, i8 noundef zeroext %12, i8 noundef zeroext %13, i8 noundef zeroext %conv9)
  br label %for.inc

for.inc:                                          ; preds = %for.body
  %15 = load i8, ptr %bit, align 1
  %inc = add i8 %15, 1
  store i8 %inc, ptr %bit, align 1
  br label %for.cond, !llvm.loop !8

for.end:                                          ; preds = %for.cond, %if.then
  ret void
}