; Function Attrs: mustprogress nofree nosync nounwind memory(argmem: readwrite) uwtable
define void @_ZN8proxygen7huffman8HuffTree9fillIndexERNS0_13SuperHuffNodeEjhhh(ptr nocapture noundef nonnull readnone align 8 dereferenceable(23576) %this, ptr nocapture noundef nonnull align 1 dereferenceable(512) %snode, i32 noundef %code, i8 noundef zeroext %bits, i8 noundef zeroext %ch, i8 noundef zeroext %level) local_unnamed_addr #2 align 2 {
entry:
  br label %tailrecurse

tailrecurse:                                      ; preds = %if.end, %entry
  %code.tr = phi i32 [ %code, %entry ], [ %or.c, %if.end ]
  %level.tr = phi i8 [ %level, %entry ], [ %add, %if.end ]
  %cmp = icmp eq i8 %level.tr, 8
  br i1 %cmp, label %if.then, label %if.end

if.then:                                          ; preds = %tailrecurse
  %idxprom = zext i32 %code.tr to i64
  %arrayidx = getelementptr inbounds [256 x %"struct.proxygen::huffman::HuffNode"], ptr %snode, i64 0, i64 %idxprom
  store i8 %ch, ptr %arrayidx, align 1
  %metadata = getelementptr inbounds i8, ptr %arrayidx, i64 1
  %bf.load = load i8, ptr %metadata, align 1
  %bf.value = and i8 %bits, 15
  %bf.clear = and i8 %bf.load, -16
  %bf.set = or disjoint i8 %bf.clear, %bf.value
  store i8 %bf.set, ptr %metadata, align 1
  ret void

if.end:                                           ; preds = %tailrecurse
  %shl = shl i32 %code.tr, 1
  %add = add i8 %level.tr, 1
  tail call void @_ZN8proxygen7huffman8HuffTree9fillIndexERNS0_13SuperHuffNodeEjhhh(ptr noundef nonnull align 8 dereferenceable(23576) %this, ptr noundef nonnull align 1 dereferenceable(512) %snode, i32 noundef %shl, i8 noundef zeroext %bits, i8 noundef zeroext %ch, i8 noundef zeroext %add)
  %or.c = or disjoint i32 %shl, 1
  br label %tailrecurse
}